target datalayout = "e-m:e-p270:32:32-p271:32:32-p272:64:64-i64:64-i128:128-f80:128-n8:16:32:64-S128"
target triple = "x86_64-pc-linux-gnu"

%struct.LZ4F_CustomMem = type { ptr, ptr, ptr, ptr }
%struct.LZ4F_CDict_s = type { %struct.LZ4F_CustomMem, ptr, ptr, ptr }

; Function Attrs: nounwind uwtable
define internal void @LZ4F_free(ptr noundef %0, ptr noundef byval(%struct.LZ4F_CustomMem) align 8 %1) #0 {
  %3 = alloca ptr, align 8
  store ptr %0, ptr %3, align 8, !tbaa !12
  %4 = load ptr, ptr %3, align 8, !tbaa !12
  %5 = icmp eq ptr %4, null
  br i1 %5, label %6, label %7

6:                                                ; preds = %2
  br label %19

7:                                                ; preds = %2
  %8 = getelementptr inbounds nuw %struct.LZ4F_CustomMem, ptr %1, i32 0, i32 2
  %9 = load ptr, ptr %8, align 8, !tbaa !47
  %10 = icmp ne ptr %9, null
  br i1 %10, label %11, label %17

11:                                               ; preds = %7
  %12 = getelementptr inbounds nuw %struct.LZ4F_CustomMem, ptr %1, i32 0, i32 2
  %13 = load ptr, ptr %12, align 8, !tbaa !47
  %14 = getelementptr inbounds nuw %struct.LZ4F_CustomMem, ptr %1, i32 0, i32 3
  %15 = load ptr, ptr %14, align 8, !tbaa !48
  %16 = load ptr, ptr %3, align 8, !tbaa !12
  call void %13(ptr noundef %15, ptr noundef %16)
  br label %19

17:                                               ; preds = %7
  %18 = load ptr, ptr %3, align 8, !tbaa !12
  call void @free(ptr noundef %18) #8
  br label %19

19:                                               ; preds = %17, %11, %6
  ret void
}

; Function Attrs: nounwind uwtable
define void @LZ4F_freeCDict(ptr noundef %0) #0 {
  %2 = alloca ptr, align 8
  store ptr %0, ptr %2, align 8, !tbaa !25
  %3 = load ptr, ptr %2, align 8, !tbaa !25
  %4 = icmp eq ptr %3, null
  br i1 %4, label %5, label %6

5:                                                ; preds = %1
  br label %25

6:                                                ; preds = %1
  %7 = load ptr, ptr %2, align 8, !tbaa !25
  %8 = getelementptr inbounds nuw %struct.LZ4F_CDict_s, ptr %7, i32 0, i32 1
  %9 = load ptr, ptr %8, align 8, !tbaa !50
  %10 = load ptr, ptr %2, align 8, !tbaa !25
  %11 = getelementptr inbounds nuw %struct.LZ4F_CDict_s, ptr %10, i32 0, i32 0
  call void @LZ4F_free(ptr noundef %9, ptr noundef byval(%struct.LZ4F_CustomMem) align 8 %11)
  %12 = load ptr, ptr %2, align 8, !tbaa !25
  %13 = getelementptr inbounds nuw %struct.LZ4F_CDict_s, ptr %12, i32 0, i32 2
  %14 = load ptr, ptr %13, align 8, !tbaa !54
  %15 = load ptr, ptr %2, align 8, !tbaa !25
  %16 = getelementptr inbounds nuw %struct.LZ4F_CDict_s, ptr %15, i32 0, i32 0
  call void @LZ4F_free(ptr noundef %14, ptr noundef byval(%struct.LZ4F_CustomMem) align 8 %16)
  %17 = load ptr, ptr %2, align 8, !tbaa !25
  %18 = getelementptr inbounds nuw %struct.LZ4F_CDict_s, ptr %17, i32 0, i32 3
  %19 = load ptr, ptr %18, align 8, !tbaa !55
  %20 = load ptr, ptr %2, align 8, !tbaa !25
  %21 = getelementptr inbounds nuw %struct.LZ4F_CDict_s, ptr %20, i32 0, i32 0
  call void @LZ4F_free(ptr noundef %19, ptr noundef byval(%struct.LZ4F_CustomMem) align 8 %21)
  %22 = load ptr, ptr %2, align 8, !tbaa !25
  %23 = load ptr, ptr %2, align 8, !tbaa !25
  %24 = getelementptr inbounds nuw %struct.LZ4F_CDict_s, ptr %23, i32 0, i32 0
  call void @LZ4F_free(ptr noundef %22, ptr noundef byval(%struct.LZ4F_CustomMem) align 8 %24)
  br label %25

25:                                               ; preds = %6, %5
  ret void
}