; Function Attrs: nounwind uwtable
define void @LZ4F_freeCDict(ptr noundef %0) local_unnamed_addr #5 {
  %2 = icmp eq ptr %0, null
  br i1 %2, label %LZ4F_free.exit21, label %3

3:                                                ; preds = %1
  %4 = getelementptr inbounds nuw i8, ptr %0, i64 32
  %5 = load ptr, ptr %4, align 8, !tbaa !44
  %6 = getelementptr i8, ptr %0, i64 16
  %.val14 = load ptr, ptr %6, align 8
  %7 = getelementptr i8, ptr %0, i64 24
  %.val15 = load ptr, ptr %7, align 8
  %8 = icmp eq ptr %5, null
  br i1 %8, label %LZ4F_free.exit, label %9

9:                                                ; preds = %3
  %.not.i = icmp eq ptr %.val14, null
  br i1 %.not.i, label %11, label %10

10:                                               ; preds = %9
  tail call void %.val14(ptr noundef %.val15, ptr noundef nonnull %5) #13
  br label %LZ4F_free.exitthread-pre-split

11:                                               ; preds = %9
  tail call void @free(ptr noundef nonnull %5) #13
  br label %LZ4F_free.exitthread-pre-split

LZ4F_free.exitthread-pre-split:                   ; preds = %11, %10
  %.val12.pr = load ptr, ptr %6, align 8
  %.val13.pre = load ptr, ptr %7, align 8
  br label %LZ4F_free.exit

LZ4F_free.exit:                                   ; preds = %LZ4F_free.exitthread-pre-split, %3
  %.val13 = phi ptr [ %.val13.pre, %LZ4F_free.exitthread-pre-split ], [ %.val15, %3 ]
  %.val12 = phi ptr [ %.val12.pr, %LZ4F_free.exitthread-pre-split ], [ %.val14, %3 ]
  %12 = getelementptr inbounds nuw i8, ptr %0, i64 40
  %13 = load ptr, ptr %12, align 8, !tbaa !48
  %14 = icmp eq ptr %13, null
  br i1 %14, label %LZ4F_free.exit17, label %15

15:                                               ; preds = %LZ4F_free.exit
  %.not.i16 = icmp eq ptr %.val12, null
  br i1 %.not.i16, label %17, label %16

16:                                               ; preds = %15
  tail call void %.val12(ptr noundef %.val13, ptr noundef nonnull %13) #13
  br label %LZ4F_free.exit17

17:                                               ; preds = %15
  tail call void @free(ptr noundef nonnull %13) #13
  br label %LZ4F_free.exit17

LZ4F_free.exit17:                                 ; preds = %LZ4F_free.exit, %16, %17
  %18 = getelementptr inbounds nuw i8, ptr %0, i64 48
  %19 = load ptr, ptr %18, align 8, !tbaa !49
  %.val10 = load ptr, ptr %6, align 8
  %.val11 = load ptr, ptr %7, align 8
  %20 = icmp eq ptr %19, null
  br i1 %20, label %24, label %21

21:                                               ; preds = %LZ4F_free.exit17
  %.not.i18 = icmp eq ptr %.val10, null
  br i1 %.not.i18, label %23, label %22

22:                                               ; preds = %21
  tail call void %.val10(ptr noundef %.val11, ptr noundef nonnull %19) #13
  br label %thread-pre-split

23:                                               ; preds = %21
  tail call void @free(ptr noundef nonnull %19) #13
  br label %thread-pre-split

thread-pre-split:                                 ; preds = %22, %23
  %.val.pr = load ptr, ptr %6, align 8
  br label %24

24:                                               ; preds = %thread-pre-split, %LZ4F_free.exit17
  %.val = phi ptr [ %.val.pr, %thread-pre-split ], [ %.val10, %LZ4F_free.exit17 ]
  %.not.i20 = icmp eq ptr %.val, null
  br i1 %.not.i20, label %26, label %25

25:                                               ; preds = %24
  %.val9 = load ptr, ptr %7, align 8
  tail call void %.val(ptr noundef %.val9, ptr noundef nonnull %0) #13
  br label %LZ4F_free.exit21

26:                                               ; preds = %24
  tail call void @free(ptr noundef nonnull %0) #13
  br label %LZ4F_free.exit21

LZ4F_free.exit21:                                 ; preds = %26, %25, %1
  ret void
}